target datalayout = "e-m:e-p270:32:32-p271:32:32-p272:64:64-i64:64-i128:128-f80:128-n8:16:32:64-S128"
target triple = "x86_64-pc-linux-gnu"

%struct.UHashtable = type { ptr, ptr, ptr, ptr, ptr, ptr, i32, i32, i32, i32, float, float, i8, i8 }

@_ZL25RESIZE_POLICY_RATIO_TABLE = internal constant [6 x float] [float 0.000000e+00, float 5.000000e-01, float 0x3FB99999A0000000, float 5.000000e-01, float 0.000000e+00, float 1.000000e+00], align 16

; Function Attrs: mustprogress nounwind uwtable
define internal void @_ZL30_uhash_internalSetResizePolicyP10UHashtable17UHashResizePolicy(ptr noundef %0, i32 noundef %1) #2 {
  %3 = alloca ptr, align 8
  %4 = alloca i32, align 4
  store ptr %0, ptr %3, align 8, !tbaa !11
  store i32 %1, ptr %4, align 4, !tbaa !35
  %5 = load i32, ptr %4, align 4, !tbaa !35
  %6 = mul nsw i32 %5, 2
  %7 = sext i32 %6 to i64
  %8 = getelementptr inbounds [6 x float], ptr @_ZL25RESIZE_POLICY_RATIO_TABLE, i64 0, i64 %7
  %9 = load float, ptr %8, align 4, !tbaa !41
  %10 = load ptr, ptr %3, align 8, !tbaa !11
  %11 = getelementptr inbounds nuw %struct.UHashtable, ptr %10, i32 0, i32 11
  store float %9, ptr %11, align 4, !tbaa !37
  %12 = load i32, ptr %4, align 4, !tbaa !35
  %13 = mul nsw i32 %12, 2
  %14 = add nsw i32 %13, 1
  %15 = sext i32 %14 to i64
  %16 = getelementptr inbounds [6 x float], ptr @_ZL25RESIZE_POLICY_RATIO_TABLE, i64 0, i64 %15
  %17 = load float, ptr %16, align 4, !tbaa !41
  %18 = load ptr, ptr %3, align 8, !tbaa !11
  %19 = getelementptr inbounds nuw %struct.UHashtable, ptr %18, i32 0, i32 10
  store float %17, ptr %19, align 8, !tbaa !39
  ret void
}

; Function Attrs: mustprogress uwtable
define void @uhash_setResizePolicy_77(ptr noundef %0, i32 noundef %1) #0 {
  %3 = alloca ptr, align 8
  %4 = alloca i32, align 4
  %5 = alloca i32, align 4
  store ptr %0, ptr %3, align 8, !tbaa !11
  store i32 %1, ptr %4, align 4, !tbaa !35
  call void @llvm.lifetime.start.p0(i64 4, ptr %5) #9
  store i32 0, ptr %5, align 4, !tbaa !9
  %6 = load ptr, ptr %3, align 8, !tbaa !11
  %7 = load i32, ptr %4, align 4, !tbaa !35
  call void @_ZL30_uhash_internalSetResizePolicyP10UHashtable17UHashResizePolicy(ptr noundef %6, i32 noundef %7)
  %8 = load ptr, ptr %3, align 8, !tbaa !11
  %9 = getelementptr inbounds nuw %struct.UHashtable, ptr %8, i32 0, i32 7
  %10 = load i32, ptr %9, align 4, !tbaa !31
  %11 = sitofp i32 %10 to float
  %12 = load ptr, ptr %3, align 8, !tbaa !11
  %13 = getelementptr inbounds nuw %struct.UHashtable, ptr %12, i32 0, i32 11
  %14 = load float, ptr %13, align 4, !tbaa !37
  %15 = fmul float %11, %14
  %16 = fptosi float %15 to i32
  %17 = load ptr, ptr %3, align 8, !tbaa !11
  %18 = getelementptr inbounds nuw %struct.UHashtable, ptr %17, i32 0, i32 9
  store i32 %16, ptr %18, align 4, !tbaa !38
  %19 = load ptr, ptr %3, align 8, !tbaa !11
  %20 = getelementptr inbounds nuw %struct.UHashtable, ptr %19, i32 0, i32 7
  %21 = load i32, ptr %20, align 4, !tbaa !31
  %22 = sitofp i32 %21 to float
  %23 = load ptr, ptr %3, align 8, !tbaa !11
  %24 = getelementptr inbounds nuw %struct.UHashtable, ptr %23, i32 0, i32 10
  %25 = load float, ptr %24, align 8, !tbaa !39
  %26 = fmul float %22, %25
  %27 = fptosi float %26 to i32
  %28 = load ptr, ptr %3, align 8, !tbaa !11
  %29 = getelementptr inbounds nuw %struct.UHashtable, ptr %28, i32 0, i32 8
  store i32 %27, ptr %29, align 8, !tbaa !40
  %30 = load ptr, ptr %3, align 8, !tbaa !11
  call void @_ZL13_uhash_rehashP10UHashtableP10UErrorCode(ptr noundef %30, ptr noundef %5)
  call void @llvm.lifetime.end.p0(i64 4, ptr %5) #9
  ret void
}