; Function Attrs: mustprogress uwtable
define void @uhash_setResizePolicy_77(ptr noundef captures(none) initializes((56, 72)) %0, i32 noundef %1) local_unnamed_addr #0 {
  %3 = alloca i32, align 4
  call void @llvm.lifetime.start.p0(i64 4, ptr nonnull %3) #13
  store i32 0, ptr %3, align 4, !tbaa !3
  %4 = shl nsw i32 %1, 1
  %5 = sext i32 %4 to i64
  %6 = getelementptr inbounds [6 x float], ptr @_ZL25RESIZE_POLICY_RATIO_TABLE, i64 0, i64 %5
  %7 = load float, ptr %6, align 8, !tbaa !36
  %8 = getelementptr inbounds nuw i8, ptr %0, i64 68
  store float %7, ptr %8, align 4, !tbaa !16
  %9 = or disjoint i32 %4, 1
  %10 = sext i32 %9 to i64
  %11 = getelementptr inbounds [6 x float], ptr @_ZL25RESIZE_POLICY_RATIO_TABLE, i64 0, i64 %10
  %12 = load float, ptr %11, align 4, !tbaa !36
  %13 = getelementptr inbounds nuw i8, ptr %0, i64 64
  store float %12, ptr %13, align 8, !tbaa !17
  %14 = getelementptr inbounds nuw i8, ptr %0, i64 52
  %15 = load i32, ptr %14, align 4, !tbaa !20
  %16 = sitofp i32 %15 to float
  %17 = fmul float %7, %16
  %18 = fptosi float %17 to i32
  %19 = getelementptr inbounds nuw i8, ptr %0, i64 60
  store i32 %18, ptr %19, align 4, !tbaa !27
  %20 = fmul float %12, %16
  %21 = fptosi float %20 to i32
  %22 = getelementptr inbounds nuw i8, ptr %0, i64 56
  store i32 %21, ptr %22, align 8, !tbaa !28
  call fastcc void @_ZL13_uhash_rehashP10UHashtableP10UErrorCode(ptr noundef %0, ptr noundef nonnull %3)
  call void @llvm.lifetime.end.p0(i64 4, ptr nonnull %3) #13
  ret void
}